
      MUY=7405                                                            Page 1


    1       7405  MUY=7405
    2       7407  DVI=7407
    3       0010  *10
    4 00010 0002  checking, 2
    5             /trial, 0
    6 00011 0002  in, 2
    7 00012 7777  MAXINT, 7777
    8 00013 0064  MAXROOT, 64
    9             
   10       0200  *200            / page 1
   11 00200 7300  settr, CLA CLL     / makes sure AC and L are cleared properly
   12 00201 1377         TAD (2)
   13 00202 3216         DCA trial   / set trial to 2
   14             
   15 00203 1010  chetr, TAD checking
   16 00204 7041         CMA IAC
   17 00205 7100         CLL
   18 00206 1216         TAD trial
   19 00207 7430         SZL         / check if trial < checking
   20 00210 5242         JMP prime   / if trial /< checking, it's a prime
   21              
   22 00211 7300         CLA CLL   
   23 00212 1010         TAD checking
   24 00213 7421         MQL
   25 00214 7300         CLA CLL
   26 00215 7407         DVI
   27 00216 0000  trial, 0  / divide checking/trial
   28                 
   29 00217 7440         SZA         / skip if AC = 0
   30 00220 5235         JMP inctr
   31             
   32 00221 7300  notprime, CLA CLL
   33 00222 1010         TAD checking
   34 00223 1376         TAD (1)
   35 00224 3010         DCA checking / checking = checking + 1
   36             
   37 00225 7200         CLA
   38 00226 1010         TAD checking
   39 00227 7041         CMA IAC
   40 00230 7100         CLL
   41 00231 1012         TAD MAXINT
   42 00232 7420         SNL         / if MAXINT >= checking
   43 00233 7402         HLT         / end program when MAXINT is reached
   44 00234 5200         JMP settr
   45              
   46 00235 7300  inctr, CLA CLL
   47 00236 1216         TAD trial
   48 00237 1376         TAD (1)
   49 00240 3216         DCA trial   / trial = trial + 1
   50 00241 5203         JMP chetr
   51             
   52                   
   53 00242 1010  prime, TAD checking
   54 00243 3011         DCA in       / in = checking
   55             
   56 00244 7300         CLA CLL
   57 00245 1375         TAD (-12)

      MUY=7405                                                            Page 2


   58 00246 1011         TAD in
   59 00247 7430         SZL
   60 00250 5261         JMP is10    / if in < 10, write digit
   61             wr1, 
   62 00251 7300         CLA CLL  
   63 00252 1011         TAD in
   64 00253 1374         TAD (060)
   65 00254 4337         JMS TTYO    / write in
   66                    
   67 00255 7300         CLA CLL
   68 00256 1373         TAD (040)
   69 00257 4337         JMS TTYO    / write ' '
   70             
   71 00260 5221         JMP notprime
   72             
   73             is10,
   74 00261 7300         CLA CLL
   75 00262 1372         TAD (-144)
   76 00263 1011         TAD in
   77 00264 7430         SZL
   78 00265 5302         JMP is100   / if in < 10, write digit
   79             wr10,
   80 00266 7300         CLA CLL   
   81 00267 1011         TAD in
   82 00270 7421         MQL
   83 00271 7300         CLA CLL
   84 00272 7407         DVI; 12  / divide by 10
      00273 0012
   85 00274 3011         DCA in   / store remainder in in
   86 00275 7501         MQA
   87 00276 1374         TAD (060)
   88 00277 4337         JMS TTYO    /write quotient
   89 00300 7300         cLA CLL      
   90 00301 5251         JMP wr1 
   91             
   92             is100,
   93 00302 7300         CLA CLL
   94 00303 1371         TAD (-1750)
   95 00304 1011         TAD in
   96 00305 7430         SZL
   97 00306 5323         JMP is1000   / if in < 10, write digit
   98             wr100,
   99 00307 7300         CLA CLL   
  100 00310 1011         TAD in
  101 00311 7421         MQL
  102 00312 7300         CLA CLL
  103 00313 7407         DVI; 144 / divide by 100
      00314 0144
  104 00315 3011         DCA in   / store remainder in in
  105 00316 7501         MQA
  106 00317 1374         TAD (060)
  107 00320 4337         JMS TTYO    /write quotient
  108 00321 7300         cLA CLL      
  109 00322 5266         JMP wr10 
  110             
  111             is1000,
  112             wr1000,

      MUY=7405                                                            Page 3


  113 00323 7300         CLA CLL   
  114 00324 1011         TAD in
  115 00325 7421         MQL
  116 00326 7300         CLA CLL
  117 00327 7407         DVI; 1750 / divide by 100
      00330 1750
  118 00331 3011         DCA in   / store remainder in in
  119 00332 7501         MQA
  120 00333 1374         TAD (060)
  121 00334 4337         JMS TTYO    /write quotient
  122 00335 7300         cLA CLL      
  123 00336 5307         JMP wr100 
  124             
  125 00337 0000  TTYO,  0
  126 00340 6046         TLS
  127 00341 6041         TSF
  128 00342 5341         JMP .-1
  129 00343 7200         CLA
  130 00344 5737         JMP I TTYO
  131              
  132             
  133             /    HLT
      00371 6030
      00372 7634
      00373 0040
      00374 0060
      00375 7766
      00376 0001
      00377 0002

      No detected errors
